; Function Attrs: mustprogress nounwind uwtable
define hidden void @_ZN9CodeCache6commitEP8CodeBlob(ptr noundef readonly %0) local_unnamed_addr #1 align 2 {
  %2 = load ptr, ptr @_ZN9CodeCache6_heapsE, align 8
  %3 = load i32, ptr %2, align 4
  %.not9.i = icmp eq i32 %3, 0
  br i1 %.not9.i, label %._crit_edge.i, label %.lr.ph.i

.lr.ph.i:                                         ; preds = %1
  %4 = getelementptr inbounds i8, ptr %2, i64 8
  %5 = load ptr, ptr %4, align 8
  %6 = zext i32 %3 to i64
  br label %8

7:                                                ; preds = %8
  %indvars.iv.next.i = add nuw nsw i64 %indvars.iv.i, 1
  %.not.i = icmp eq i64 %indvars.iv.next.i, %6
  br i1 %.not.i, label %._crit_edge.i, label %8, !llvm.loop !22

8:                                                ; preds = %7, %.lr.ph.i
  %indvars.iv.i = phi i64 [ 0, %.lr.ph.i ], [ %indvars.iv.next.i, %7 ]
  %9 = getelementptr inbounds ptr, ptr %5, i64 %indvars.iv.i
  %10 = load ptr, ptr %9, align 8
  %11 = getelementptr inbounds i8, ptr %10, i64 16
  %12 = load ptr, ptr %11, align 8
  %.not.i.i = icmp ule ptr %12, %0
  %13 = getelementptr inbounds i8, ptr %10, i64 24
  %14 = load ptr, ptr %13, align 8
  %15 = icmp ugt ptr %14, %0
  %16 = select i1 %.not.i.i, i1 %15, i1 false
  br i1 %16, label %_ZN9CodeCache13get_code_heapEPKv.exit, label %7

._crit_edge.i:                                    ; preds = %7, %1
  %17 = load ptr, ptr @g_assert_poison, align 8
  store i8 88, ptr %17, align 1
  tail call void @_Z28report_should_not_reach_herePKci(ptr noundef nonnull @.str.28, i32 noundef 462) #22
  unreachable

_ZN9CodeCache13get_code_heapEPKv.exit:            ; preds = %8
  %18 = getelementptr inbounds i8, ptr %0, i64 52
  %19 = load i8, ptr %18, align 4
  %20 = icmp eq i8 %19, 1
  br i1 %20, label %21, label %29

21:                                               ; preds = %_ZN9CodeCache13get_code_heapEPKv.exit
  %22 = getelementptr inbounds i8, ptr %10, i64 320
  %23 = load i32, ptr %22, align 8
  %24 = add nsw i32 %23, 1
  store i32 %24, ptr %22, align 8
  %25 = getelementptr inbounds i8, ptr %0, i64 184
  %26 = load i16, ptr %25, align 8
  %.not = icmp eq i16 %26, 0
  br i1 %.not, label %thread-pre-split, label %27

27:                                               ; preds = %21
  %28 = tail call noundef i32 asm sideeffect "lock xaddl $0,($2)", "=r,0,r,~{cc},~{memory},~{dirflag},~{fpsr},~{flags}"(i32 1, ptr nonnull @_ZN9CodeCache37_number_of_nmethods_with_dependenciesE) #20, !srcloc !26
  br label %thread-pre-split

thread-pre-split:                                 ; preds = %27, %21
  %.pr = load i8, ptr %18, align 4
  br label %29

29:                                               ; preds = %thread-pre-split, %_ZN9CodeCache13get_code_heapEPKv.exit
  %30 = phi i8 [ %.pr, %thread-pre-split ], [ %19, %_ZN9CodeCache13get_code_heapEPKv.exit ]
  %31 = icmp eq i8 %30, 3
  br i1 %31, label %32, label %36

32:                                               ; preds = %29
  %33 = getelementptr inbounds i8, ptr %10, i64 324
  %34 = load i32, ptr %33, align 4
  %35 = add nsw i32 %34, 1
  store i32 %35, ptr %33, align 4
  br label %36

36:                                               ; preds = %32, %29
  ret void
}